; Function Attrs: nounwind uwtable
define noalias nonnull ptr @l_Lean_isTracingEnabledFor___at_Lean_Meta_Grind_Arith_Cutsat_resolveCooperPred___spec__1(ptr noundef %0, i8 zeroext %1, ptr readnone captures(none) %2, ptr readnone captures(none) %3, ptr readnone captures(none) %4, ptr readnone captures(none) %5, ptr readnone captures(none) %6, ptr readnone captures(none) %7, ptr readnone captures(none) %8, ptr noundef readonly captures(none) %9, ptr readnone captures(none) %10, ptr noundef %11) local_unnamed_addr #1 {
  %13 = getelementptr inbounds nuw i8, ptr %9, i64 104
  %14 = load ptr, ptr %13, align 8, !tbaa !11
  %15 = getelementptr inbounds nuw i8, ptr %9, i64 24
  %16 = load ptr, ptr %15, align 8, !tbaa !11
  %17 = tail call zeroext i8 @l_Lean_checkTraceOption(ptr noundef %14, ptr noundef %16, ptr noundef %0) #6
  tail call void @lean_inc_heartbeat() #6
  %18 = tail call noalias ptr @mi_malloc_small(i64 noundef 24) #6
  %19 = icmp eq ptr %18, null
  br i1 %19, label %20, label %lean_alloc_ctor.exit

20:                                               ; preds = %12
  tail call void @lean_internal_panic_out_of_memory() #7
  unreachable

lean_alloc_ctor.exit:                             ; preds = %12
  %21 = zext i8 %17 to i64
  %22 = shl nuw nsw i64 %21, 1
  %23 = or disjoint i64 %22, 1
  %24 = inttoptr i64 %23 to ptr
  %25 = getelementptr inbounds nuw i8, ptr %18, i64 4
  store i32 1, ptr %18, align 4, !tbaa !6
  store i32 131096, ptr %25, align 4
  %26 = getelementptr inbounds nuw i8, ptr %18, i64 8
  store ptr %24, ptr %26, align 8, !tbaa !11
  %27 = getelementptr inbounds nuw i8, ptr %18, i64 16
  store ptr %11, ptr %27, align 8, !tbaa !11
  ret ptr %18
}